(lp0
(idatabase
Task
p1
(dp2
S'_list'
p3
NsS'_tags'
p4
NsS'_time_estimate'
p5
NsS'_repeat'
p6
NsS'_priority'
p7
I1
sS'_text'
p8
S'Task jedan'
p9
sS'_due'
p10
cdatetime
datetime
p11
(S'\x07\xdb\x07\x05\n\r\x00\x00\x00\x00'
p12
tp13
Rp14
sS'id'
p15
I1
sba(idatabase
Task
p16
(dp17
g3
Nsg4
Nsg5
Nsg6
Nsg7
I2
sg8
S'Task dva'
p18
sg10
cdatetime
date
p19
(S'\x07\xdb\x07\x06'
p20
tp21
Rp22
sg15
I2
sba(idatabase
Task
p23
(dp24
g3
Nsg4
Nsg5
Nsg6
Nsg7
I3
sg8
S'Task tri'
p25
sg10
Nsg15
I3
sba(idatabase
Task
p26
(dp27
g3
Nsg4
Nsg5
Nsg6
Nsg7
Nsg8
S'Task cetiri'
p28
sg10
Nsg15
I4
sba.